target datalayout = "e-m:e-p270:32:32-p271:32:32-p272:64:64-i64:64-i128:128-f80:128-n8:16:32:64-S128"
target triple = "x86_64-unknown-linux-gnu"

; Function Attrs: mustprogress nounwind uwtable
define i32 @udat_toCalendarDateField_75(i32 noundef %field) #0 {
entry:
  %field.addr = alloca i32, align 4
  store i32 %field, ptr %field.addr, align 4
  %0 = load i32, ptr %field.addr, align 4
  %cmp = icmp sge i32 %0, 0
  br i1 %cmp, label %land.lhs.true, label %cond.false

land.lhs.true:                                    ; preds = %entry
  %1 = load i32, ptr %field.addr, align 4
  %cmp1 = icmp slt i32 %1, 38
  br i1 %cmp1, label %cond.true, label %cond.false

cond.true:                                        ; preds = %land.lhs.true
  %2 = load i32, ptr %field.addr, align 4
  %idxprom = zext i32 %2 to i64
  %arrayidx = getelementptr inbounds [38 x i32], ptr @_ZL17gDateFieldMapping, i64 0, i64 %idxprom
  %3 = load i32, ptr %arrayidx, align 4
  br label %cond.end

cond.false:                                       ; preds = %land.lhs.true, %entry
  br label %cond.end

cond.end:                                         ; preds = %cond.false, %cond.true
  %cond = phi i32 [ %3, %cond.true ], [ 24, %cond.false ]
  ret i32 %cond
}