; Function Attrs: mustprogress nofree norecurse nosync nounwind willreturn memory(none) uwtable
define i32 @udat_toCalendarDateField_75(i32 noundef %field) local_unnamed_addr #0 {
entry:
  %or.cond = icmp ult i32 %field, 38
  br i1 %or.cond, label %cond.true, label %cond.end

cond.true:                                        ; preds = %entry
  %idxprom = zext nneg i32 %field to i64
  %arrayidx = getelementptr inbounds [38 x i32], ptr @_ZL17gDateFieldMapping, i64 0, i64 %idxprom
  %0 = load i32, ptr %arrayidx, align 4
  br label %cond.end

cond.end:                                         ; preds = %entry, %cond.true
  %cond = phi i32 [ %0, %cond.true ], [ 24, %entry ]
  ret i32 %cond
}